target datalayout = "e-m:e-p270:32:32-p271:32:32-p272:64:64-i64:64-i128:128-f80:128-n8:16:32:64-S128"
target triple = "x86_64-pc-linux-gnu"

; Function Attrs: nounwind sspstrong uwtable
define internal i32 @mbc_enc_len(ptr noundef %0, ptr noundef %1, ptr noundef %2) #0 {
  %4 = alloca i32, align 4
  %5 = alloca ptr, align 8
  %6 = alloca ptr, align 8
  %7 = alloca ptr, align 8
  %8 = alloca i32, align 4
  %9 = alloca i32, align 4
  %10 = alloca i32, align 4
  store ptr %0, ptr %5, align 8, !tbaa !13
  store ptr %1, ptr %6, align 8, !tbaa !13
  store ptr %2, ptr %7, align 8, !tbaa !14
  call void @llvm.lifetime.start.p0(i64 4, ptr %8) #4
  %11 = load ptr, ptr %5, align 8, !tbaa !13
  %12 = getelementptr inbounds nuw i8, ptr %11, i32 1
  store ptr %12, ptr %5, align 8, !tbaa !13
  %13 = load i8, ptr %11, align 1, !tbaa !16
  %14 = zext i8 %13 to i32
  store i32 %14, ptr %8, align 4, !tbaa !17
  call void @llvm.lifetime.start.p0(i64 4, ptr %9) #4
  %15 = load i32, ptr %8, align 4, !tbaa !17
  %16 = sext i32 %15 to i64
  %17 = getelementptr inbounds [256 x i8], ptr @trans, i64 0, i64 %16
  %18 = load i8, ptr %17, align 1, !tbaa !16
  %19 = sext i8 %18 to i32
  store i32 %19, ptr %9, align 4, !tbaa !17
  %20 = load i32, ptr %9, align 4, !tbaa !17
  %21 = icmp slt i32 %20, 0
  br i1 %21, label %22, label %26

22:                                               ; preds = %3
  %23 = load i32, ptr %9, align 4, !tbaa !17
  %24 = icmp eq i32 %23, -1
  %25 = select i1 %24, i32 1, i32 -1
  store i32 %25, ptr %4, align 4
  store i32 1, ptr %10, align 4
  br label %51

26:                                               ; preds = %3
  %27 = load ptr, ptr %5, align 8, !tbaa !13
  %28 = load ptr, ptr %6, align 8, !tbaa !13
  %29 = icmp eq ptr %27, %28
  br i1 %29, label %30, label %37

30:                                               ; preds = %26
  %31 = load i32, ptr %8, align 4, !tbaa !17
  %32 = sext i32 %31 to i64
  %33 = getelementptr inbounds [256 x i32], ptr @EncLen_SJIS, i64 0, i64 %32
  %34 = load i32, ptr %33, align 4, !tbaa !17
  %35 = sub nsw i32 %34, 1
  %36 = sub nsw i32 -1, %35
  store i32 %36, ptr %4, align 4
  store i32 1, ptr %10, align 4
  br label %51

37:                                               ; preds = %26
  %38 = load i32, ptr %9, align 4, !tbaa !17
  %39 = sext i32 %38 to i64
  %40 = getelementptr inbounds [2 x [256 x i8]], ptr @trans, i64 0, i64 %39
  %41 = load ptr, ptr %5, align 8, !tbaa !13
  %42 = getelementptr inbounds nuw i8, ptr %41, i32 1
  store ptr %42, ptr %5, align 8, !tbaa !13
  %43 = load i8, ptr %41, align 1, !tbaa !16
  %44 = zext i8 %43 to i64
  %45 = getelementptr inbounds nuw [256 x i8], ptr %40, i64 0, i64 %44
  %46 = load i8, ptr %45, align 1, !tbaa !16
  %47 = sext i8 %46 to i32
  store i32 %47, ptr %9, align 4, !tbaa !17
  %48 = load i32, ptr %9, align 4, !tbaa !17
  %49 = icmp eq i32 %48, -1
  %50 = select i1 %49, i32 2, i32 -1
  store i32 %50, ptr %4, align 4
  store i32 1, ptr %10, align 4
  br label %51

51:                                               ; preds = %37, %30, %22
  call void @llvm.lifetime.end.p0(i64 4, ptr %9) #4
  call void @llvm.lifetime.end.p0(i64 4, ptr %8) #4
  %52 = load i32, ptr %4, align 4
  ret i32 %52
}

; Function Attrs: nounwind sspstrong uwtable
define internal i32 @mbc_to_code(ptr noundef %0, ptr noundef %1, ptr noundef %2) #0 {
  %4 = alloca i32, align 4
  %5 = alloca ptr, align 8
  %6 = alloca ptr, align 8
  %7 = alloca ptr, align 8
  %8 = alloca i32, align 4
  %9 = alloca i32, align 4
  %10 = alloca i32, align 4
  %11 = alloca i32, align 4
  %12 = alloca i32, align 4
  store ptr %0, ptr %5, align 8, !tbaa !13
  store ptr %1, ptr %6, align 8, !tbaa !13
  store ptr %2, ptr %7, align 8, !tbaa !14
  call void @llvm.lifetime.start.p0(i64 4, ptr %8) #4
  call void @llvm.lifetime.start.p0(i64 4, ptr %9) #4
  call void @llvm.lifetime.start.p0(i64 4, ptr %10) #4
  call void @llvm.lifetime.start.p0(i64 4, ptr %11) #4
  %13 = load ptr, ptr %5, align 8, !tbaa !13
  %14 = load ptr, ptr %6, align 8, !tbaa !13
  %15 = load ptr, ptr %7, align 8, !tbaa !14
  %16 = call i32 @mbc_enc_len(ptr noundef %13, ptr noundef %14, ptr noundef %15)
  store i32 %16, ptr %10, align 4, !tbaa !17
  %17 = load ptr, ptr %5, align 8, !tbaa !13
  %18 = getelementptr inbounds nuw i8, ptr %17, i32 1
  store ptr %18, ptr %5, align 8, !tbaa !13
  %19 = load i8, ptr %17, align 1, !tbaa !16
  %20 = zext i8 %19 to i32
  store i32 %20, ptr %8, align 4, !tbaa !17
  %21 = load i32, ptr %8, align 4, !tbaa !17
  store i32 %21, ptr %11, align 4, !tbaa !17
  %22 = load i32, ptr %10, align 4, !tbaa !17
  %23 = icmp eq i32 %22, 1
  br i1 %23, label %24, label %26

24:                                               ; preds = %3
  %25 = load i32, ptr %11, align 4, !tbaa !17
  store i32 %25, ptr %4, align 4
  store i32 1, ptr %12, align 4
  br label %51

26:                                               ; preds = %3
  store i32 1, ptr %9, align 4, !tbaa !17
  br label %27

27:                                               ; preds = %46, %26
  %28 = load i32, ptr %9, align 4, !tbaa !17
  %29 = load i32, ptr %10, align 4, !tbaa !17
  %30 = icmp slt i32 %28, %29
  br i1 %30, label %31, label %49

31:                                               ; preds = %27
  %32 = load ptr, ptr %5, align 8, !tbaa !13
  %33 = load ptr, ptr %6, align 8, !tbaa !13
  %34 = icmp uge ptr %32, %33
  br i1 %34, label %35, label %36

35:                                               ; preds = %31
  br label %49

36:                                               ; preds = %31
  %37 = load ptr, ptr %5, align 8, !tbaa !13
  %38 = getelementptr inbounds nuw i8, ptr %37, i32 1
  store ptr %38, ptr %5, align 8, !tbaa !13
  %39 = load i8, ptr %37, align 1, !tbaa !16
  %40 = zext i8 %39 to i32
  store i32 %40, ptr %8, align 4, !tbaa !17
  %41 = load i32, ptr %11, align 4, !tbaa !17
  %42 = shl i32 %41, 8
  store i32 %42, ptr %11, align 4, !tbaa !17
  %43 = load i32, ptr %8, align 4, !tbaa !17
  %44 = load i32, ptr %11, align 4, !tbaa !17
  %45 = add i32 %44, %43
  store i32 %45, ptr %11, align 4, !tbaa !17
  br label %46

46:                                               ; preds = %36
  %47 = load i32, ptr %9, align 4, !tbaa !17
  %48 = add nsw i32 %47, 1
  store i32 %48, ptr %9, align 4, !tbaa !17
  br label %27, !llvm.loop !18

49:                                               ; preds = %35, %27
  %50 = load i32, ptr %11, align 4, !tbaa !17
  store i32 %50, ptr %4, align 4
  store i32 1, ptr %12, align 4
  br label %51

51:                                               ; preds = %49, %24
  call void @llvm.lifetime.end.p0(i64 4, ptr %11) #4
  call void @llvm.lifetime.end.p0(i64 4, ptr %10) #4
  call void @llvm.lifetime.end.p0(i64 4, ptr %9) #4
  call void @llvm.lifetime.end.p0(i64 4, ptr %8) #4
  %52 = load i32, ptr %4, align 4
  ret i32 %52
}