; Function Attrs: nofree norecurse nosync nounwind sspstrong memory(argmem: read) uwtable
define internal i32 @mbc_to_code(ptr noundef readonly captures(address) %0, ptr noundef readnone captures(address) %1, ptr readnone captures(none) %2) #3 {
  %4 = getelementptr inbounds nuw i8, ptr %0, i64 1
  %5 = load i8, ptr %0, align 1, !tbaa !6
  %6 = zext i8 %5 to i64
  %7 = getelementptr inbounds nuw [256 x i8], ptr @trans, i64 0, i64 %6
  %8 = load i8, ptr %7, align 1, !tbaa !6
  %9 = sext i8 %8 to i64
  %10 = icmp slt i8 %8, 0
  br i1 %10, label %11, label %13

11:                                               ; preds = %3
  %12 = icmp eq i8 %8, -1
  br i1 %12, label %mbc_enc_len.exit.thread, label %.preheader

13:                                               ; preds = %3
  %14 = icmp eq ptr %4, %1
  br i1 %14, label %mbc_enc_len.exit, label %15

15:                                               ; preds = %13
  %16 = load i8, ptr %4, align 1, !tbaa !6
  %17 = zext i8 %16 to i64
  %18 = getelementptr inbounds nuw [2 x [256 x i8]], ptr @trans, i64 0, i64 %9, i64 %17
  %19 = load i8, ptr %18, align 1, !tbaa !6
  %20 = icmp eq i8 %19, -1
  %21 = select i1 %20, i32 2, i32 -1
  br label %.preheader

mbc_enc_len.exit.thread:                          ; preds = %11
  %22 = zext i8 %5 to i32
  br label %.loopexit

mbc_enc_len.exit:                                 ; preds = %13
  %23 = getelementptr inbounds nuw [256 x i32], ptr @EncLen_SJIS, i64 0, i64 %6
  %24 = load i32, ptr %23, align 4, !tbaa !9
  %25 = sub nsw i32 0, %24
  br label %.preheader

.preheader:                                       ; preds = %15, %11, %mbc_enc_len.exit
  %.0.i30 = phi i32 [ %25, %mbc_enc_len.exit ], [ %21, %15 ], [ -1, %11 ]
  %26 = zext i8 %5 to i32
  %27 = icmp sgt i32 %.0.i30, 1
  %.not23 = icmp ult ptr %4, %1
  %or.cond24 = select i1 %27, i1 %.not23, i1 false
  br i1 %or.cond24, label %.lr.ph, label %.loopexit

.lr.ph:                                           ; preds = %.preheader, %.lr.ph
  %.01927 = phi ptr [ %.019, %.lr.ph ], [ %4, %.preheader ]
  %.026 = phi i32 [ %31, %.lr.ph ], [ %26, %.preheader ]
  %.01825 = phi i32 [ %32, %.lr.ph ], [ 1, %.preheader ]
  %28 = load i8, ptr %.01927, align 1, !tbaa !6
  %29 = zext i8 %28 to i32
  %30 = shl i32 %.026, 8
  %31 = or disjoint i32 %30, %29
  %32 = add nuw nsw i32 %.01825, 1
  %.019 = getelementptr inbounds nuw i8, ptr %.01927, i64 1
  %33 = icmp slt i32 %32, %.0.i30
  %.not = icmp ult ptr %.019, %1
  %or.cond = select i1 %33, i1 %.not, i1 false
  br i1 %or.cond, label %.lr.ph, label %.loopexit, !llvm.loop !11

.loopexit:                                        ; preds = %.lr.ph, %.preheader, %mbc_enc_len.exit.thread
  %.017 = phi i32 [ %22, %mbc_enc_len.exit.thread ], [ %26, %.preheader ], [ %31, %.lr.ph ]
  ret i32 %.017
}